(lp0
F1461208198.945136
a(itree
Tree
p1
(dp2
S'threshold'
p3
F0.00010362694300518135
sS'right'
p4
(itree
Tree
p5
(dp6
g3
F0.014006888633754305
sg4
(itree
Tree
p7
(dp8
g3
F0.0008064516129032258
sg4
(itree
Tree
p9
(dp10
g3
F0.015544041450777202
sg4
(itree
Tree
p11
(dp12
g3
F0.0008004802881729037
sg4
(itree
Tree
p13
(dp14
g3
F0.0073145245559038665
sg4
(itree
Tree
p15
(dp16
g3
F0.09379968203497616
sg4
(itree
Tree
p17
(dp18
g3
F0.057233704292527825
sg4
(itree
Tree
p19
(dp20
S'prediction'
p21
(dp22
S'ham'
p23
F1.0
ssbsS'leaf'
p24
I00
sS'feature'
p25
I13
sS'left'
p26
(itree
Tree
p27
(dp28
g3
F0.02100840336134454
sg4
(itree
Tree
p29
(dp30
g21
(dp31
S'spam'
p32
F1.0
ssbsg24
I00
sg25
I2
sg26
(itree
Tree
p33
(dp34
g21
(dp35
g23
F1.0
ssbsbsbsg24
I00
sg25
I4
sg26
(itree
Tree
p36
(dp37
g3
F0.008048289738430584
sg4
(itree
Tree
p38
(dp39
g21
(dp40
g32
F1.0
ssbsg24
I00
sg25
I1
sg26
(itree
Tree
p41
(dp42
g3
F0.045283018867924525
sg4
(itree
Tree
p43
(dp44
g21
(dp45
g23
F0.19047619047619047
sg32
F0.8095238095238095
ssbsg24
I00
sg25
I13
sg26
(itree
Tree
p46
(dp47
g21
(dp48
g32
F1.0
ssbsbsbsbsg24
I00
sg25
I26
sg26
(itree
Tree
p49
(dp50
g3
F0.05592841163310962
sg4
(itree
Tree
p51
(dp52
g3
F0.00026518164942985947
sg4
(itree
Tree
p53
(dp54
g21
(dp55
g32
F1.0
ssbsg24
I00
sg25
I29
sg26
(itree
Tree
p56
(dp57
g21
(dp58
g23
F1.0
ssbsbsg24
I00
sg25
I14
sg26
(itree
Tree
p59
(dp60
g3
F0.0052732502396931925
sg4
(itree
Tree
p61
(dp62
g3
F0.0010921004732435385
sg4
(itree
Tree
p63
(dp64
g21
(dp65
g23
F0.23529411764705882
sg32
F0.7647058823529411
ssbsg24
I00
sg25
I29
sg26
(itree
Tree
p66
(dp67
g21
(dp68
g23
F1.0
ssbsbsg24
I00
sg25
I27
sg26
(itree
Tree
p69
(dp70
g21
(dp71
g32
F1.0
ssbsbsbsbsg24
I00
sg25
I16
sg26
(itree
Tree
p72
(dp73
g3
F0.002771362586605081
sg4
(itree
Tree
p74
(dp75
g3
F0.0021691973969631237
sg4
(itree
Tree
p76
(dp77
g3
F0.010810810810810811
sg4
(itree
Tree
p78
(dp79
g21
(dp80
g23
F1.0
ssbsg24
I00
sg25
I9
sg26
(itree
Tree
p81
(dp82
g3
F0.0031746031746031746
sg4
(itree
Tree
p83
(dp84
g21
(dp85
g32
F1.0
ssbsg24
I00
sg25
I23
sg26
(itree
Tree
p86
(dp87
g21
(dp88
g23
F0.18421052631578946
sg32
F0.8157894736842105
ssbsbsbsg24
I00
sg25
I29
sg26
(itree
Tree
p89
(dp90
g3
F0.005863779882724403
sg4
(itree
Tree
p91
(dp92
g3
F0.06224627875507442
sg4
(itree
Tree
p93
(dp94
g21
(dp95
g23
F0.8809523809523809
sg32
F0.11904761904761904
ssbsg24
I00
sg25
I4
sg26
(itree
Tree
p96
(dp97
g21
(dp98
g32
F1.0
ssbsbsg24
I00
sg25
I27
sg26
(itree
Tree
p99
(dp100
g3
F0.03854875283446712
sg4
(itree
Tree
p101
(dp102
g21
(dp103
g32
F1.0
ssbsg24
I00
sg25
I18
sg26
(itree
Tree
p104
(dp105
g21
(dp106
g23
F0.6666666666666666
sg32
F0.3333333333333333
ssbsbsbsbsg24
I00
sg25
I9
sg26
(itree
Tree
p107
(dp108
g3
F0.028338245295851282
sg4
(itree
Tree
p109
(dp110
g3
F0.008395061728395062
sg4
(itree
Tree
p111
(dp112
g3
F0.0036518563603164943
sg4
(itree
Tree
p113
(dp114
g21
(dp115
g23
F0.8571428571428571
sg32
F0.14285714285714285
ssbsg24
I00
sg25
I27
sg26
(itree
Tree
p116
(dp117
g21
(dp118
g32
F1.0
ssbsbsg24
I00
sg25
I1
sg26
(itree
Tree
p119
(dp120
g21
(dp121
g32
F1.0
ssbsbsg24
I00
sg25
I7
sg26
(itree
Tree
p122
(dp123
g3
F0.019953952417498082
sg4
(itree
Tree
p124
(dp125
g3
F0.0016129032258064516
sg4
(itree
Tree
p126
(dp127
g21
(dp128
g23
F0.022222222222222223
sg32
F0.9777777777777777
ssbsg24
I00
sg25
I23
sg26
(itree
Tree
p129
(dp130
g21
(dp131
g23
F0.25
sg32
F0.75
ssbsbsg24
I00
sg25
I15
sg26
(itree
Tree
p132
(dp133
g21
(dp134
g32
F1.0
ssbsbsbsbsbsg24
I00
sg25
I15
sg26
(itree
Tree
p135
(dp136
g3
F0.0023584905660377358
sg4
(itree
Tree
p137
(dp138
g3
F0.044543429844097995
sg4
(itree
Tree
p139
(dp140
g3
F0.005277044854881266
sg4
(itree
Tree
p141
(dp142
g21
(dp143
g32
F1.0
ssbsg24
I00
sg25
I21
sg26
(itree
Tree
p144
(dp145
g3
F0.010818120351588911
sg4
(itree
Tree
p146
(dp147
g21
(dp148
g32
F1.0
ssbsg24
I00
sg25
I22
sg26
(itree
Tree
p149
(dp150
g3
F0.00048496605237633366
sg4
(itree
Tree
p151
(dp152
g21
(dp153
g32
F1.0
ssbsg24
I00
sg25
I16
sg26
(itree
Tree
p154
(dp155
g21
(dp156
g23
F0.8
sg32
F0.2
ssbsbsbsbsg24
I00
sg25
I17
sg26
(itree
Tree
p157
(dp158
g3
F0.002932551319648094
sg4
(itree
Tree
p159
(dp160
g3
F0.055825242718446605
sg4
(itree
Tree
p161
(dp162
g3
F0.0158311345646438
sg4
(itree
Tree
p163
(dp164
g21
(dp165
g23
F1.0
ssbsg24
I00
sg25
I5
sg26
(itree
Tree
p166
(dp167
g21
(dp168
g32
F1.0
ssbsbsg24
I00
sg25
I18
sg26
(itree
Tree
p169
(dp170
g21
(dp171
g32
F1.0
ssbsbsg24
I00
sg25
I23
sg26
(itree
Tree
p172
(dp173
g3
F0.005934718100890208
sg4
(itree
Tree
p174
(dp175
g3
F0.028462998102466792
sg4
(itree
Tree
p176
(dp177
g21
(dp178
g32
F1.0
ssbsg24
I00
sg25
I7
sg26
(itree
Tree
p179
(dp180
g21
(dp181
g23
F0.68
sg32
F0.32
ssbsbsg24
I00
sg25
I27
sg26
(itree
Tree
p182
(dp183
g3
F0.013315579227696404
sg4
(itree
Tree
p184
(dp185
g21
(dp186
g32
F1.0
ssbsg24
I00
sg25
I6
sg26
(itree
Tree
p187
(dp188
g21
(dp189
g23
F0.35294117647058826
sg32
F0.6470588235294118
ssbsbsbsbsbsg24
I00
sg25
I29
sg26
(itree
Tree
p190
(dp191
g3
F0.0035842293906810036
sg4
(itree
Tree
p192
(dp193
g3
F0.016310257339615802
sg4
(itree
Tree
p194
(dp195
g3
F0.020385050962627407
sg4
(itree
Tree
p196
(dp197
g21
(dp198
g23
F1.0
ssbsg24
I00
sg25
I24
sg26
(itree
Tree
p199
(dp200
g3
F0.005702066999287242
sg4
(itree
Tree
p201
(dp202
g21
(dp203
g32
F1.0
ssbsg24
I00
sg25
I26
sg26
(itree
Tree
p204
(dp205
g21
(dp206
g23
F1.0
ssbsbsbsg24
I00
sg25
I6
sg26
(itree
Tree
p207
(dp208
g3
F0.001697792869269949
sg4
(itree
Tree
p209
(dp210
g3
F0.007797270955165692
sg4
(itree
Tree
p211
(dp212
g21
(dp213
g23
F1.0
ssbsg24
I00
sg25
I10
sg26
(itree
Tree
p214
(dp215
g21
(dp216
g23
F0.4444444444444444
sg32
F0.5555555555555556
ssbsbsg24
I00
sg25
I23
sg26
(itree
Tree
p217
(dp218
g21
(dp219
g23
F1.0
ssbsbsbsg24
I00
sg25
I9
sg26
(itree
Tree
p220
(dp221
g3
F0.017160161507402422
sg4
(itree
Tree
p222
(dp223
g3
F0.05319148936170213
sg4
(itree
Tree
p224
(dp225
g3
F0.020437956204379562
sg4
(itree
Tree
p226
(dp227
g21
(dp228
g32
F1.0
ssbsg24
I00
sg25
I20
sg26
(itree
Tree
p229
(dp230
g21
(dp231
g23
F0.5
sg32
F0.5
ssbsbsg24
I00
sg25
I17
sg26
(itree
Tree
p232
(dp233
g3
F0.07307542008597108
sg4
(itree
Tree
p234
(dp235
g21
(dp236
g23
F0.6724137931034483
sg32
F0.3275862068965517
ssbsg24
I00
sg25
I4
sg26
(itree
Tree
p237
(dp238
g21
(dp239
g23
F0.16666666666666666
sg32
F0.8333333333333334
ssbsbsbsg24
I00
sg25
I7
sg26
(itree
Tree
p240
(dp241
g3
F0.01879927228623408
sg4
(itree
Tree
p242
(dp243
g21
(dp244
g23
F1.0
ssbsg24
I00
sg25
I27
sg26
(itree
Tree
p245
(dp246
g21
(dp247
g32
F1.0
ssbsbsbsbsbsbsg24
I00
sg25
I25
sg26
(itree
Tree
p248
(dp249
g3
F0.12382331643736423
sg4
(itree
Tree
p250
(dp251
g21
(dp252
g23
F1.0
ssbsg24
I00
sg25
I0
sg26
(itree
Tree
p253
(dp254
g3
F0.02350570852921424
sg4
(itree
Tree
p255
(dp256
g3
F0.0018484288354898336
sg4
(itree
Tree
p257
(dp258
g3
F0.010050251256281407
sg4
(itree
Tree
p259
(dp260
g3
F0.04406779661016949
sg4
(itree
Tree
p261
(dp262
g3
F0.028846153846153848
sg4
(itree
Tree
p263
(dp264
g21
(dp265
g32
F1.0
ssbsg24
I00
sg25
I15
sg26
(itree
Tree
p266
(dp267
g21
(dp268
g23
F0.875
sg32
F0.125
ssbsbsg24
I00
sg25
I30
sg26
(itree
Tree
p269
(dp270
g3
F0.003424657534246575
sg4
(itree
Tree
p271
(dp272
g21
(dp273
g23
F0.013333333333333334
sg32
F0.9866666666666667
ssbsg24
I00
sg25
I29
sg26
(itree
Tree
p274
(dp275
g21
(dp276
g23
F0.25
sg32
F0.75
ssbsbsbsg24
I00
sg25
I21
sg26
(itree
Tree
p277
(dp278
g3
F0.020190023752969122
sg4
(itree
Tree
p279
(dp280
g3
F0.04363001745200698
sg4
(itree
Tree
p281
(dp282
g21
(dp283
g23
F0.5
sg32
F0.5
ssbsg24
I00
sg25
I13
sg26
(itree
Tree
p284
(dp285
g21
(dp286
g23
F0.03125
sg32
F0.96875
ssbsbsg24
I00
sg25
I22
sg26
(itree
Tree
p287
(dp288
g3
F0.015376458112407211
sg4
(itree
Tree
p289
(dp290
g21
(dp291
g23
F0.4205607476635514
sg32
F0.5794392523364486
ssbsg24
I00
sg25
I15
sg26
(itree
Tree
p292
(dp293
g21
(dp294
g23
F0.7254901960784313
sg32
F0.27450980392156865
ssbsbsbsbsg24
I00
sg25
I29
sg26
(itree
Tree
p295
(dp296
g3
F0.21655295164639574
sg4
(itree
Tree
p297
(dp298
g3
F0.004340962904498816
sg4
(itree
Tree
p299
(dp300
g3
F0.01008827238335435
sg4
(itree
Tree
p301
(dp302
g21
(dp303
g23
F0.7325581395348837
sg32
F0.26744186046511625
ssbsg24
I00
sg25
I26
sg26
(itree
Tree
p304
(dp305
g21
(dp306
g23
F0.9652777777777778
sg32
F0.034722222222222224
ssbsbsg24
I00
sg25
I27
sg26
(itree
Tree
p307
(dp308
g3
F0.08731466227347612
sg4
(itree
Tree
p309
(dp310
g21
(dp311
g23
F0.8064516129032258
sg32
F0.1935483870967742
ssbsg24
I00
sg25
I4
sg26
(itree
Tree
p312
(dp313
g21
(dp314
g23
F0.32432432432432434
sg32
F0.6756756756756757
ssbsbsbsg24
I00
sg25
I31
sg26
(itree
Tree
p315
(dp316
g3
F0.04537286612758311
sg4
(itree
Tree
p317
(dp318
g3
F0.02027972027972028
sg4
(itree
Tree
p319
(dp320
g21
(dp321
g23
F0.625
sg32
F0.375
ssbsg24
I00
sg25
I15
sg26
(itree
Tree
p322
(dp323
g21
(dp324
g23
F0.03571428571428571
sg32
F0.9642857142857143
ssbsbsg24
I00
sg25
I17
sg26
(itree
Tree
p325
(dp326
g21
(dp327
g23
F1.0
ssbsbsbsbsg24
I00
sg25
I7
sg26
(itree
Tree
p328
(dp329
g3
F0.01597444089456869
sg4
(itree
Tree
p330
(dp331
g3
F0.002544529262086514
sg4
(itree
Tree
p332
(dp333
g3
F0.06309751434034416
sg4
(itree
Tree
p334
(dp335
g3
F0.008771929824561403
sg4
(itree
Tree
p336
(dp337
g21
(dp338
g23
F1.0
ssbsg24
I00
sg25
I27
sg26
(itree
Tree
p339
(dp340
g21
(dp341
g23
F0.38235294117647056
sg32
F0.6176470588235294
ssbsbsg24
I00
sg25
I19
sg26
(itree
Tree
p342
(dp343
g3
F0.0022222222222222222
sg4
(itree
Tree
p344
(dp345
g21
(dp346
g23
F0.05263157894736842
sg32
F0.9473684210526315
ssbsg24
I00
sg25
I23
sg26
(itree
Tree
p347
(dp348
g21
(dp349
g23
F0.19298245614035087
sg32
F0.8070175438596491
ssbsbsbsg24
I00
sg25
I1
sg26
(itree
Tree
p350
(dp351
g3
F0.03647798742138365
sg4
(itree
Tree
p352
(dp353
g21
(dp354
g23
F1.0
ssbsg24
I00
sg25
I3
sg26
(itree
Tree
p355
(dp356
g21
(dp357
g32
F1.0
ssbsbsbsg24
I00
sg25
I15
sg26
(itree
Tree
p358
(dp359
g3
F0.007662835249042145
sg4
(itree
Tree
p360
(dp361
g3
F0.2971246006389776
sg4
(itree
Tree
p362
(dp363
g3
F0.004819277108433735
sg4
(itree
Tree
p364
(dp365
g21
(dp366
g23
F0.13333333333333333
sg32
F0.8666666666666667
ssbsg24
I00
sg25
I23
sg26
(itree
Tree
p367
(dp368
g21
(dp369
g23
F0.7952755905511811
sg32
F0.2047244094488189
ssbsbsg24
I00
sg25
I31
sg26
(itree
Tree
p370
(dp371
g3
F0.06133828996282528
sg4
(itree
Tree
p372
(dp373
g21
(dp374
g23
F0.9
sg32
F0.1
ssbsg24
I00
sg25
I13
sg26
(itree
Tree
p375
(dp376
g21
(dp377
g23
F0.3021978021978022
sg32
F0.6978021978021978
ssbsbsbsg24
I00
sg25
I7
sg26
(itree
Tree
p378
(dp379
g21
(dp380
g32
F1.0
ssbsbsbsbsbsbsg24
I00
sg25
I30
sg26
(itree
Tree
p381
(dp382
g3
F0.002288329519450801
sg4
(itree
Tree
p383
(dp384
g3
F0.0013422818791946308
sg4
(itree
Tree
p385
(dp386
g3
F0.07763401109057301
sg4
(itree
Tree
p387
(dp388
g3
F0.042091836734693876
sg4
(itree
Tree
p389
(dp390
g3
F0.06261022927689594
sg4
(itree
Tree
p391
(dp392
g3
F0.006165703275529865
sg4
(itree
Tree
p393
(dp394
g3
F0.003711952487008166
sg4
(itree
Tree
p395
(dp396
g21
(dp397
g23
F0.005012531328320802
sg32
F0.9949874686716792
ssbsg24
I00
sg25
I1
sg26
(itree
Tree
p398
(dp399
g21
(dp400
g23
F1.0
ssbsbsg24
I00
sg25
I21
sg26
(itree
Tree
p401
(dp402
g3
F0.013461538461538462
sg4
(itree
Tree
p403
(dp404
g21
(dp405
g32
F1.0
ssbsg24
I00
sg25
I1
sg26
(itree
Tree
p406
(dp407
g21
(dp408
g23
F0.6153846153846154
sg32
F0.38461538461538464
ssbsbsbsg24
I00
sg25
I8
sg26
(itree
Tree
p409
(dp410
g3
F0.0006548788474132286
sg4
(itree
Tree
p411
(dp412
g3
F0.06333072713057075
sg4
(itree
Tree
p413
(dp414
g21
(dp415
g23
F0.36363636363636365
sg32
F0.6363636363636364
ssbsg24
I00
sg25
I13
sg26
(itree
Tree
p416
(dp417
g21
(dp418
g23
F0.060431654676258995
sg32
F0.939568345323741
ssbsbsg24
I00
sg25
I29
sg26
(itree
Tree
p419
(dp420
g3
F0.05850580514891469
sg4
(itree
Tree
p421
(dp422
g21
(dp423
g23
F0.1917808219178082
sg32
F0.8082191780821918
ssbsg24
I00
sg25
I0
sg26
(itree
Tree
p424
(dp425
g21
(dp426
g23
F0.6923076923076923
sg32
F0.3076923076923077
ssbsbsbsbsg24
I00
sg25
I17
sg26
(itree
Tree
p427
(dp428
g3
F0.0014792899408284023
sg4
(itree
Tree
p429
(dp430
g3
F0.011799410029498525
sg4
(itree
Tree
p431
(dp432
g21
(dp433
g32
F1.0
ssbsg24
I00
sg25
I22
sg26
(itree
Tree
p434
(dp435
g3
F0.06051873198847262
sg4
(itree
Tree
p436
(dp437
g21
(dp438
g23
F1.0
ssbsg24
I00
sg25
I8
sg26
(itree
Tree
p439
(dp440
g21
(dp441
g23
F0.058823529411764705
sg32
F0.9411764705882353
ssbsbsbsg24
I00
sg25
I25
sg26
(itree
Tree
p442
(dp443
g3
F0.00530035335689046
sg4
(itree
Tree
p444
(dp445
g3
F0.003787878787878788
sg4
(itree
Tree
p446
(dp447
g21
(dp448
g23
F0.27586206896551724
sg32
F0.7241379310344828
ssbsg24
I00
sg25
I9
sg26
(itree
Tree
p449
(dp450
g21
(dp451
g32
F1.0
ssbsbsg24
I00
sg25
I29
sg26
(itree
Tree
p452
(dp453
g3
F0.012257543103448275
sg4
(itree
Tree
p454
(dp455
g21
(dp456
g23
F0.23880597014925373
sg32
F0.7611940298507462
ssbsg24
I00
sg25
I26
sg26
(itree
Tree
p457
(dp458
g21
(dp459
g23
F0.5444444444444444
sg32
F0.45555555555555555
ssbsbsbsbsbsg24
I00
sg25
I4
sg26
(itree
Tree
p460
(dp461
g3
F0.024350649350649352
sg4
(itree
Tree
p462
(dp463
g21
(dp464
g32
F1.0
ssbsg24
I00
sg25
I20
sg26
(itree
Tree
p465
(dp466
g3
F0.004796163069544364
sg4
(itree
Tree
p467
(dp468
g3
F0.011904761904761904
sg4
(itree
Tree
p469
(dp470
g3
F0.003003003003003003
sg4
(itree
Tree
p471
(dp472
g21
(dp473
g32
F1.0
ssbsg24
I00
sg25
I29
sg26
(itree
Tree
p474
(dp475
g21
(dp476
g23
F0.8
sg32
F0.2
ssbsbsg24
I00
sg25
I10
sg26
(itree
Tree
p477
(dp478
g21
(dp479
g32
F1.0
ssbsbsg24
I00
sg25
I21
sg26
(itree
Tree
p480
(dp481
g3
F0.013333333333333334
sg4
(itree
Tree
p482
(dp483
g21
(dp484
g32
F1.0
ssbsg24
I00
sg25
I1
sg26
(itree
Tree
p485
(dp486
g21
(dp487
g23
F1.0
ssbsbsbsbsbsg24
I00
sg25
I23
sg26
(itree
Tree
p488
(dp489
g3
F0.050100200400801605
sg4
(itree
Tree
p490
(dp491
g3
F0.005267118133935289
sg4
(itree
Tree
p492
(dp493
g3
F0.01092896174863388
sg4
(itree
Tree
p494
(dp495
g3
F0.01053864168618267
sg4
(itree
Tree
p496
(dp497
g3
F0.011335012594458438
sg4
(itree
Tree
p498
(dp499
g21
(dp500
g23
F1.0
ssbsg24
I00
sg25
I1
sg26
(itree
Tree
p501
(dp502
g21
(dp503
g23
F0.3125
sg32
F0.6875
ssbsbsg24
I00
sg25
I21
sg26
(itree
Tree
p504
(dp505
g3
F0.007913669064748202
sg4
(itree
Tree
p506
(dp507
g21
(dp508
g32
F1.0
ssbsg24
I00
sg25
I21
sg26
(itree
Tree
p509
(dp510
g21
(dp511
g23
F0.2711864406779661
sg32
F0.7288135593220338
ssbsbsbsg24
I00
sg25
I26
sg26
(itree
Tree
p512
(dp513
g3
F0.03296703296703297
sg4
(itree
Tree
p514
(dp515
g3
F0.006521739130434782
sg4
(itree
Tree
p516
(dp517
g21
(dp518
g23
F0.05
sg32
F0.95
ssbsg24
I00
sg25
I6
sg26
(itree
Tree
p519
(dp520
g21
(dp521
g23
F1.0
ssbsbsg24
I00
sg25
I3
sg26
(itree
Tree
p522
(dp523
g3
F0.029447852760736196
sg4
(itree
Tree
p524
(dp525
g21
(dp526
g23
F0.32
sg32
F0.68
ssbsg24
I00
sg25
I20
sg26
(itree
Tree
p527
(dp528
g21
(dp529
g23
F0.7553191489361702
sg32
F0.24468085106382978
ssbsbsbsbsg24
I00
sg25
I10
sg26
(itree
Tree
p530
(dp531
g3
F0.02542812662169175
sg4
(itree
Tree
p532
(dp533
g3
F0.007362784471218206
sg4
(itree
Tree
p534
(dp535
g3
F0.015082956259426848
sg4
(itree
Tree
p536
(dp537
g21
(dp538
g23
F0.1
sg32
F0.9
ssbsg24
I00
sg25
I2
sg26
(itree
Tree
p539
(dp540
g21
(dp541
g23
F1.0
ssbsbsg24
I00
sg25
I21
sg26
(itree
Tree
p542
(dp543
g3
F0.0358883473637572
sg4
(itree
Tree
p544
(dp545
g21
(dp546
g32
F1.0
ssbsg24
I00
sg25
I11
sg26
(itree
Tree
p547
(dp548
g21
(dp549
g23
F0.7419354838709677
sg32
F0.25806451612903225
ssbsbsbsg24
I00
sg25
I3
sg26
(itree
Tree
p550
(dp551
g3
F0.0070921985815602835
sg4
(itree
Tree
p552
(dp553
g3
F0.005172413793103448
sg4
(itree
Tree
p554
(dp555
g21
(dp556
g23
F1.0
ssbsg24
I00
sg25
I10
sg26
(itree
Tree
p557
(dp558
g21
(dp559
g23
F0.010526315789473684
sg32
F0.9894736842105263
ssbsbsg24
I00
sg25
I26
sg26
(itree
Tree
p560
(dp561
g3
F0.0
sg4
(itree
Tree
p562
(dp563
g21
(dp564
g23
F0.5454545454545454
sg32
F0.45454545454545453
ssbsg24
I00
sg25
I23
sg26
(itree
Tree
p565
(dp566
g21
(dp567
sbsbsbsbsbsg24
I00
sg25
I13
sg26
(itree
Tree
p568
(dp569
g3
F0.04551724137931035
sg4
(itree
Tree
p570
(dp571
g3
F0.06323185011709602
sg4
(itree
Tree
p572
(dp573
g3
F0.0004775549188156638
sg4
(itree
Tree
p574
(dp575
g3
F0.00993150684931507
sg4
(itree
Tree
p576
(dp577
g21
(dp578
g23
F0.1509433962264151
sg32
F0.8490566037735849
ssbsg24
I00
sg25
I10
sg26
(itree
Tree
p579
(dp580
g21
(dp581
g23
F0.03343465045592705
sg32
F0.9665653495440729
ssbsbsg24
I00
sg25
I9
sg26
(itree
Tree
p582
(dp583
g21
(dp584
g23
F1.0
ssbsbsg24
I00
sg25
I4
sg26
(itree
Tree
p585
(dp586
g3
F0.0
sg4
(itree
Tree
p587
(dp588
g3
F0.0
sg4
(itree
Tree
p589
(dp590
g21
(dp591
g23
F0.5
sg32
F0.5
ssbsg24
I00
sg25
I16
sg26
(itree
Tree
p592
(dp593
g21
(dp594
sbsbsg24
I00
sg25
I16
sg26
(itree
Tree
p595
(dp596
g21
(dp597
sbsbsbsg24
I00
sg25
I17
sg26
(itree
Tree
p598
(dp599
g3
F0.00741839762611276
sg4
(itree
Tree
p600
(dp601
g3
F0.019867549668874173
sg4
(itree
Tree
p602
(dp603
g3
F0.027777777777777776
sg4
(itree
Tree
p604
(dp605
g21
(dp606
g23
F0.16901408450704225
sg32
F0.8309859154929577
ssbsg24
I00
sg25
I18
sg26
(itree
Tree
p607
(dp608
g21
(dp609
g23
F1.0
ssbsbsg24
I00
sg25
I2
sg26
(itree
Tree
p610
(dp611
g3
F0.0
sg4
(itree
Tree
p612
(dp613
g21
(dp614
g23
F0.5185185185185185
sg32
F0.48148148148148145
ssbsg24
I00
sg25
I28
sg26
(itree
Tree
p615
(dp616
g21
(dp617
sbsbsbsg24
I00
sg25
I10
sg26
(itree
Tree
p618
(dp619
g3
F0.00020052135552436334
sg4
(itree
Tree
p620
(dp621
g3
F0.008830022075055188
sg4
(itree
Tree
p622
(dp623
g21
(dp624
g23
F0.04411764705882353
sg32
F0.9558823529411765
ssbsg24
I00
sg25
I21
sg26
(itree
Tree
p625
(dp626
g21
(dp627
g23
F0.21176470588235294
sg32
F0.788235294117647
ssbsbsg24
I00
sg25
I7
sg26
(itree
Tree
p628
(dp629
g21
(dp630
g23
F1.0
ssbsbsbsbsbsbsg24
I00
sg25
I26
sg26
(itree
Tree
p631
(dp632
g3
F0.007874015748031496
sg4
(itree
Tree
p633
(dp634
g3
F0.017857142857142856
sg4
(itree
Tree
p635
(dp636
g3
F0.017857142857142856
sg4
(itree
Tree
p637
(dp638
g3
F0.017857142857142856
sg4
(itree
Tree
p639
(dp640
g3
F0.017857142857142856
sg4
(itree
Tree
p641
(dp642
g3
F0.017857142857142856
sg4
(itree
Tree
p643
(dp644
g21
(dp645
g23
F0.0027434842249657062
sg32
F0.9972565157750343
ssbsg24
I00
sg25
I11
sg26
(itree
Tree
p646
(dp647
g21
(dp648
sbsbsg24
I00
sg25
I11
sg26
(itree
Tree
p649
(dp650
g21
(dp651
sbsbsg24
I00
sg25
I11
sg26
(itree
Tree
p652
(dp653
g21
(dp654
sbsbsg24
I00
sg25
I11
sg26
(itree
Tree
p655
(dp656
g21
(dp657
sbsbsg24
I00
sg25
I11
sg26
(itree
Tree
p658
(dp659
g3
F0.0
sg4
(itree
Tree
p660
(dp661
g3
F0.0
sg4
(itree
Tree
p662
(dp663
g3
F0.0
sg4
(itree
Tree
p664
(dp665
g3
F0.0
sg4
(itree
Tree
p666
(dp667
g21
(dp668
g23
F0.046875
sg32
F0.953125
ssbsg24
I00
sg25
I30
sg26
(itree
Tree
p669
(dp670
g21
(dp671
sbsbsg24
I00
sg25
I30
sg26
(itree
Tree
p672
(dp673
g21
(dp674
sbsbsg24
I00
sg25
I30
sg26
(itree
Tree
p675
(dp676
g21
(dp677
sbsbsg24
I00
sg25
I30
sg26
(itree
Tree
p678
(dp679
g21
(dp680
sbsbsbsg24
I00
sg25
I6
sg26
(itree
Tree
p681
(dp682
g3
F0.011627906976744186
sg4
(itree
Tree
p683
(dp684
g3
F0.006897837434750187
sg4
(itree
Tree
p685
(dp686
g21
(dp687
g23
F1.0
ssbsg24
I00
sg25
I10
sg26
(itree
Tree
p688
(dp689
g21
(dp690
g32
F1.0
ssbsbsg24
I00
sg25
I27
sg26
(itree
Tree
p691
(dp692
g3
F0.05263157894736842
sg4
(itree
Tree
p693
(dp694
g3
F0.017857142857142856
sg4
(itree
Tree
p695
(dp696
g21
(dp697
g32
F1.0
ssbsg24
I00
sg25
I24
sg26
(itree
Tree
p698
(dp699
g3
F0.0
sg4
(itree
Tree
p700
(dp701
g3
F0.0
sg4
(itree
Tree
p702
(dp703
g21
(dp704
g23
F0.5
sg32
F0.5
ssbsg24
I00
sg25
I23
sg26
(itree
Tree
p705
(dp706
g21
(dp707
sbsbsg24
I00
sg25
I23
sg26
(itree
Tree
p708
(dp709
g21
(dp710
sbsbsbsg24
I00
sg25
I20
sg26
(itree
Tree
p711
(dp712
g21
(dp713
g32
F1.0
ssbsbsbsbsbsbsg24
I00
sg25
I29
sg26
(itree
Tree
p714
(dp715
g3
F0.012514898688915376
sg4
(itree
Tree
p716
(dp717
g3
F0.03225806451612903
sg4
(itree
Tree
p718
(dp719
g3
F0.04638009049773756
sg4
(itree
Tree
p720
(dp721
g3
F0.0015766653527788726
sg4
(itree
Tree
p722
(dp723
g3
F0.00798035604665439
sg4
(itree
Tree
p724
(dp725
g3
F0.01664719626168224
sg4
(itree
Tree
p726
(dp727
g3
F0.0011918951132300357
sg4
(itree
Tree
p728
(dp729
g3
F0.035
sg4
(itree
Tree
p730
(dp731
g21
(dp732
g23
F1.0
ssbsg24
I00
sg25
I7
sg26
(itree
Tree
p733
(dp734
g21
(dp735
g32
F1.0
ssbsbsg24
I00
sg25
I28
sg26
(itree
Tree
p736
(dp737
g3
F0.09667673716012085
sg4
(itree
Tree
p738
(dp739
g21
(dp740
g23
F1.0
ssbsg24
I00
sg25
I4
sg26
(itree
Tree
p741
(dp742
g21
(dp743
g23
F0.5416666666666666
sg32
F0.4583333333333333
ssbsbsbsg24
I00
sg25
I15
sg26
(itree
Tree
p744
(dp745
g3
F0.04741980474198047
sg4
(itree
Tree
p746
(dp747
g3
F0.053349140486069944
sg4
(itree
Tree
p748
(dp749
g21
(dp750
g32
F1.0
ssbsg24
I00
sg25
I30
sg26
(itree
Tree
p751
(dp752
g21
(dp753
g23
F0.8064516129032258
sg32
F0.1935483870967742
ssbsbsg24
I00
sg25
I18
sg26
(itree
Tree
p754
(dp755
g3
F0.004206098843322818
sg4
(itree
Tree
p756
(dp757
g21
(dp758
g23
F1.0
ssbsg24
I00
sg25
I10
sg26
(itree
Tree
p759
(dp760
g21
(dp761
g23
F0.8653846153846154
sg32
F0.1346153846153846
ssbsbsbsbsg24
I00
sg25
I27
sg26
(itree
Tree
p762
(dp763
g3
F0.08711885500933417
sg4
(itree
Tree
p764
(dp765
g3
F0.0048115477145148355
sg4
(itree
Tree
p766
(dp767
g3
F0.0486322188449848
sg4
(itree
Tree
p768
(dp769
g21
(dp770
g23
F0.5416666666666666
sg32
F0.4583333333333333
ssbsg24
I00
sg25
I17
sg26
(itree
Tree
p771
(dp772
g21
(dp773
g23
F0.8767123287671232
sg32
F0.1232876712328767
ssbsbsg24
I00
sg25
I26
sg26
(itree
Tree
p774
(dp775
g3
F0.006237006237006237
sg4
(itree
Tree
p776
(dp777
g21
(dp778
g23
F0.625
sg32
F0.375
ssbsg24
I00
sg25
I27
sg26
(itree
Tree
p779
(dp780
g21
(dp781
g23
F0.03125
sg32
F0.96875
ssbsbsbsg24
I00
sg25
I4
sg26
(itree
Tree
p782
(dp783
g3
F0.018789144050104383
sg4
(itree
Tree
p784
(dp785
g21
(dp786
g32
F1.0
ssbsg24
I00
sg25
I1
sg26
(itree
Tree
p787
(dp788
g3
F0.010905125408942203
sg4
(itree
Tree
p789
(dp790
g21
(dp791
g23
F0.2511013215859031
sg32
F0.748898678414097
ssbsg24
I00
sg25
I15
sg26
(itree
Tree
p792
(dp793
g21
(dp794
g23
F0.7142857142857143
sg32
F0.2857142857142857
ssbsbsbsbsbsg24
I00
sg25
I25
sg26
(itree
Tree
p795
(dp796
g3
F0.02412280701754386
sg4
(itree
Tree
p797
(dp798
g3
F0.05625
sg4
(itree
Tree
p799
(dp800
g3
F0.003367003367003367
sg4
(itree
Tree
p801
(dp802
g3
F0.0016339869281045752
sg4
(itree
Tree
p803
(dp804
g21
(dp805
g23
F0.7632850241545893
sg32
F0.23671497584541062
ssbsg24
I00
sg25
I26
sg26
(itree
Tree
p806
(dp807
g21
(dp808
g23
F0.06666666666666667
sg32
F0.9333333333333333
ssbsbsg24
I00
sg25
I9
sg26
(itree
Tree
p809
(dp810
g3
F0.016243654822335026
sg4
(itree
Tree
p811
(dp812
g21
(dp813
g23
F0.23893805309734514
sg32
F0.7610619469026548
ssbsg24
I00
sg25
I5
sg26
(itree
Tree
p814
(dp815
g21
(dp816
g23
F0.5989583333333334
sg32
F0.4010416666666667
ssbsbsbsg24
I00
sg25
I14
sg26
(itree
Tree
p817
(dp818
g3
F0.02815622161671208
sg4
(itree
Tree
p819
(dp820
g3
F0.013782542113323124
sg4
(itree
Tree
p821
(dp822
g21
(dp823
g23
F0.7017543859649122
sg32
F0.2982456140350877
ssbsg24
I00
sg25
I26
sg26
(itree
Tree
p824
(dp825
g21
(dp826
g23
F0.9558232931726908
sg32
F0.04417670682730924
ssbsbsg24
I00
sg25
I7
sg26
(itree
Tree
p827
(dp828
g3
F0.003076923076923077
sg4
(itree
Tree
p829
(dp830
g21
(dp831
g23
F0.13636363636363635
sg32
F0.8636363636363636
ssbsg24
I00
sg25
I28
sg26
(itree
Tree
p832
(dp833
g21
(dp834
g23
F0.7588075880758808
sg32
F0.24119241192411925
ssbsbsbsbsg24
I00
sg25
I20
sg26
(itree
Tree
p835
(dp836
g3
F0.015479876160990712
sg4
(itree
Tree
p837
(dp838
g3
F0.006134969325153374
sg4
(itree
Tree
p839
(dp840
g3
F0.2474747474747475
sg4
(itree
Tree
p841
(dp842
g21
(dp843
g23
F0.43434343434343436
sg32
F0.5656565656565656
ssbsg24
I00
sg25
I31
sg26
(itree
Tree
p844
(dp845
g21
(dp846
g23
F0.8375
sg32
F0.1625
ssbsbsg24
I00
sg25
I22
sg26
(itree
Tree
p847
(dp848
g3
F0.052256532066508314
sg4
(itree
Tree
p849
(dp850
g21
(dp851
g32
F1.0
ssbsg24
I00
sg25
I11
sg26
(itree
Tree
p852
(dp853
g21
(dp854
g23
F0.9452054794520548
sg32
F0.0547945205479452
ssbsbsbsg24
I00
sg25
I26
sg26
(itree
Tree
p855
(dp856
g3
F0.06126126126126126
sg4
(itree
Tree
p857
(dp858
g3
F0.0005449591280653951
sg4
(itree
Tree
p859
(dp860
g21
(dp861
g23
F0.7212389380530974
sg32
F0.27876106194690264
ssbsg24
I00
sg25
I9
sg26
(itree
Tree
p862
(dp863
g21
(dp864
g32
F1.0
ssbsbsg24
I00
sg25
I8
sg26
(itree
Tree
p865
(dp866
g3
F0.07756410256410257
sg4
(itree
Tree
p867
(dp868
g21
(dp869
g23
F0.9395674300254453
sg32
F0.060432569974554706
ssbsg24
I00
sg25
I4
sg26
(itree
Tree
p870
(dp871
g21
(dp872
g23
F0.8109339407744874
sg32
F0.18906605922551253
ssbsbsbsbsbsbsg24
I00
sg25
I19
sg26
(itree
Tree
p873
(dp874
g3
F0.003330161750713606
sg4
(itree
Tree
p875
(dp876
g3
F0.004739336492890996
sg4
(itree
Tree
p877
(dp878
g3
F0.021739130434782608
sg4
(itree
Tree
p879
(dp880
g3
F0.04819277108433735
sg4
(itree
Tree
p881
(dp882
g3
F0.011834319526627219
sg4
(itree
Tree
p883
(dp884
g21
(dp885
g23
F0.025
sg32
F0.975
ssbsg24
I00
sg25
I20
sg26
(itree
Tree
p886
(dp887
g21
(dp888
g23
F0.8
sg32
F0.2
ssbsbsg24
I00
sg25
I14
sg26
(itree
Tree
p889
(dp890
g3
F0.0027624309392265192
sg4
(itree
Tree
p891
(dp892
g21
(dp893
g32
F1.0
ssbsg24
I00
sg25
I25
sg26
(itree
Tree
p894
(dp895
g21
(dp896
g23
F0.8285714285714286
sg32
F0.17142857142857143
ssbsbsbsg24
I00
sg25
I15
sg26
(itree
Tree
p897
(dp898
g3
F0.027184466019417475
sg4
(itree
Tree
p899
(dp900
g3
F0.004618937644341801
sg4
(itree
Tree
p901
(dp902
g21
(dp903
g23
F0.05263157894736842
sg32
F0.9473684210526315
ssbsg24
I00
sg25
I21
sg26
(itree
Tree
p904
(dp905
g21
(dp906
g23
F0.8333333333333334
sg32
F0.16666666666666666
ssbsbsg24
I00
sg25
I26
sg26
(itree
Tree
p907
(dp908
g3
F0.06504065040650407
sg4
(itree
Tree
p909
(dp910
g21
(dp911
g23
F0.35
sg32
F0.65
ssbsg24
I00
sg25
I8
sg26
(itree
Tree
p912
(dp913
g21
(dp914
g23
F0.8964497041420119
sg32
F0.10355029585798817
ssbsbsbsbsg24
I00
sg25
I27
sg26
(itree
Tree
p915
(dp916
g3
F0.0012942191544434857
sg4
(itree
Tree
p917
(dp918
g3
F0.0018726591760299626
sg4
(itree
Tree
p919
(dp920
g3
F0.041237113402061855
sg4
(itree
Tree
p921
(dp922
g21
(dp923
g23
F0.05
sg32
F0.95
ssbsg24
I00
sg25
I14
sg26
(itree
Tree
p924
(dp925
g21
(dp926
g23
F0.8333333333333334
sg32
F0.16666666666666666
ssbsbsg24
I00
sg25
I27
sg26
(itree
Tree
p927
(dp928
g21
(dp929
g32
F1.0
ssbsbsg24
I00
sg25
I25
sg26
(itree
Tree
p930
(dp931
g3
F0.002352941176470588
sg4
(itree
Tree
p932
(dp933
g3
F0.04194857916102842
sg4
(itree
Tree
p934
(dp935
g21
(dp936
g23
F0.5
sg32
F0.5
ssbsg24
I00
sg25
I13
sg26
(itree
Tree
p937
(dp938
g21
(dp939
g23
F0.027777777777777776
sg32
F0.9722222222222222
ssbsbsg24
I00
sg25
I28
sg26
(itree
Tree
p940
(dp941
g3
F0.04866180048661801
sg4
(itree
Tree
p942
(dp943
g21
(dp944
g23
F0.2807017543859649
sg32
F0.7192982456140351
ssbsg24
I00
sg25
I17
sg26
(itree
Tree
p945
(dp946
g21
(dp947
g23
F0.7203389830508474
sg32
F0.2796610169491525
ssbsbsbsbsbsg24
I00
sg25
I9
sg26
(itree
Tree
p948
(dp949
g3
F0.045174537987679675
sg4
(itree
Tree
p950
(dp951
g3
F0.0425531914893617
sg4
(itree
Tree
p952
(dp953
g3
F0.001579778830963665
sg4
(itree
Tree
p954
(dp955
g3
F0.010416666666666666
sg4
(itree
Tree
p956
(dp957
g21
(dp958
g23
F0.21428571428571427
sg32
F0.7857142857142857
ssbsg24
I00
sg25
I26
sg26
(itree
Tree
p959
(dp960
g21
(dp961
g32
F1.0
ssbsbsg24
I00
sg25
I9
sg26
(itree
Tree
p962
(dp963
g3
F0.013727560718057022
sg4
(itree
Tree
p964
(dp965
g21
(dp966
g23
F0.2222222222222222
sg32
F0.7777777777777778
ssbsg24
I00
sg25
I5
sg26
(itree
Tree
p967
(dp968
g21
(dp969
g23
F1.0
ssbsbsbsg24
I00
sg25
I19
sg26
(itree
Tree
p970
(dp971
g3
F0.045941807044410414
sg4
(itree
Tree
p972
(dp973
g21
(dp974
g23
F1.0
ssbsg24
I00
sg25
I12
sg26
(itree
Tree
p975
(dp976
g3
F0.02480916030534351
sg4
(itree
Tree
p977
(dp978
g21
(dp979
g32
F1.0
ssbsg24
I00
sg25
I17
sg26
(itree
Tree
p980
(dp981
g21
(dp982
g23
F0.6666666666666666
sg32
F0.3333333333333333
ssbsbsbsbsg24
I00
sg25
I8
sg26
(itree
Tree
p983
(dp984
g3
F0.01780104712041885
sg4
(itree
Tree
p985
(dp986
g3
F0.003134796238244514
sg4
(itree
Tree
p987
(dp988
g3
F0.04299065420560748
sg4
(itree
Tree
p989
(dp990
g21
(dp991
g23
F0.25
sg32
F0.75
ssbsg24
I00
sg25
I8
sg26
(itree
Tree
p992
(dp993
g21
(dp994
g32
F1.0
ssbsbsg24
I00
sg25
I23
sg26
(itree
Tree
p995
(dp996
g3
F0.04155844155844156
sg4
(itree
Tree
p997
(dp998
g21
(dp999
g23
F0.2545454545454545
sg32
F0.7454545454545455
ssbsg24
I00
sg25
I14
sg26
(itree
Tree
p1000
(dp1001
g21
(dp1002
g23
F0.875
sg32
F0.125
ssbsbsbsg24
I00
sg25
I15
sg26
(itree
Tree
p1003
(dp1004
g3
F0.02619047619047619
sg4
(itree
Tree
p1005
(dp1006
g3
F0.016055045871559634
sg4
(itree
Tree
p1007
(dp1008
g21
(dp1009
g32
F1.0
ssbsg24
I00
sg25
I12
sg26
(itree
Tree
p1010
(dp1011
g21
(dp1012
g23
F0.6666666666666666
sg32
F0.3333333333333333
ssbsbsg24
I00
sg25
I26
sg26
(itree
Tree
p1013
(dp1014
g3
F0.016272189349112426
sg4
(itree
Tree
p1015
(dp1016
g21
(dp1017
g23
F0.6136363636363636
sg32
F0.38636363636363635
ssbsg24
I00
sg25
I20
sg26
(itree
Tree
p1018
(dp1019
g21
(dp1020
g23
F1.0
ssbsbsbsbsbsbsbsg24
I00
sg25
I8
sg26
(itree
Tree
p1021
(dp1022
g3
F0.062146892655367235
sg4
(itree
Tree
p1023
(dp1024
g3
F0.012658227848101266
sg4
(itree
Tree
p1025
(dp1026
g3
F0.04
sg4
(itree
Tree
p1027
(dp1028
g3
F0.0
sg4
(itree
Tree
p1029
(dp1030
g3
F0.0
sg4
(itree
Tree
p1031
(dp1032
g3
F0.0
sg4
(itree
Tree
p1033
(dp1034
g21
(dp1035
g23
F0.9188640973630832
sg32
F0.08113590263691683
ssbsg24
I00
sg25
I5
sg26
(itree
Tree
p1036
(dp1037
g21
(dp1038
sbsbsg24
I00
sg25
I5
sg26
(itree
Tree
p1039
(dp1040
g21
(dp1041
sbsbsg24
I00
sg25
I5
sg26
(itree
Tree
p1042
(dp1043
g21
(dp1044
sbsbsg24
I00
sg25
I4
sg26
(itree
Tree
p1045
(dp1046
g3
F0.0038510911424903724
sg4
(itree
Tree
p1047
(dp1048
g3
F0.030303030303030304
sg4
(itree
Tree
p1049
(dp1050
g21
(dp1051
g23
F1.0
ssbsg24
I00
sg25
I2
sg26
(itree
Tree
p1052
(dp1053
g21
(dp1054
g32
F1.0
ssbsbsg24
I00
sg25
I21
sg26
(itree
Tree
p1055
(dp1056
g3
F0.02425876010781671
sg4
(itree
Tree
p1057
(dp1058
g3
F0.031746031746031744
sg4
(itree
Tree
p1059
(dp1060
g21
(dp1061
g32
F1.0
ssbsg24
I00
sg25
I1
sg26
(itree
Tree
p1062
(dp1063
g21
(dp1064
g23
F1.0
ssbsbsg24
I00
sg25
I2
sg26
(itree
Tree
p1065
(dp1066
g3
F0.009433962264150943
sg4
(itree
Tree
p1067
(dp1068
g21
(dp1069
g32
F1.0
ssbsg24
I00
sg25
I2
sg26
(itree
Tree
p1070
(dp1071
g21
(dp1072
g23
F1.0
ssbsbsbsbsbsg24
I00
sg25
I1
sg26
(itree
Tree
p1073
(dp1074
g3
F0.05223880597014925
sg4
(itree
Tree
p1075
(dp1076
g3
F0.0
sg4
(itree
Tree
p1077
(dp1078
g3
F0.0
sg4
(itree
Tree
p1079
(dp1080
g3
F0.0
sg4
(itree
Tree
p1081
(dp1082
g21
(dp1083
g23
F0.8686868686868687
sg32
F0.13131313131313133
ssbsg24
I00
sg25
I10
sg26
(itree
Tree
p1084
(dp1085
g21
(dp1086
sbsbsg24
I00
sg25
I10
sg26
(itree
Tree
p1087
(dp1088
g21
(dp1089
sbsbsg24
I00
sg25
I10
sg26
(itree
Tree
p1090
(dp1091
g21
(dp1092
sbsbsg24
I00
sg25
I14
sg26
(itree
Tree
p1093
(dp1094
g3
F0.00980392156862745
sg4
(itree
Tree
p1095
(dp1096
g3
F0.0045045045045045045
sg4
(itree
Tree
p1097
(dp1098
g3
F0.04954954954954955
sg4
(itree
Tree
p1099
(dp1100
g21
(dp1101
g32
F1.0
ssbsg24
I00
sg25
I18
sg26
(itree
Tree
p1102
(dp1103
g21
(dp1104
g23
F1.0
ssbsbsg24
I00
sg25
I25
sg26
(itree
Tree
p1105
(dp1106
g3
F0.07766990291262135
sg4
(itree
Tree
p1107
(dp1108
g21
(dp1109
g32
F1.0
ssbsg24
I00
sg25
I17
sg26
(itree
Tree
p1110
(dp1111
g21
(dp1112
g23
F0.9985580389329488
sg32
F0.0014419610670511895
ssbsbsbsg24
I00
sg25
I13
sg26
(itree
Tree
p1113
(dp1114
g3
F0.0038095238095238095
sg4
(itree
Tree
p1115
(dp1116
g21
(dp1117
g32
F1.0
ssbsg24
I00
sg25
I21
sg26
(itree
Tree
p1118
(dp1119
g3
F0.005970149253731343
sg4
(itree
Tree
p1120
(dp1121
g21
(dp1122
g23
F1.0
ssbsg24
I00
sg25
I0
sg26
(itree
Tree
p1123
(dp1124
g21
(dp1125
g32
F1.0
ssbsbsbsbsbsbsg24
I00
sg25
I30
sg26
(itree
Tree
p1126
(dp1127
g3
F0.01929260450160772
sg4
(itree
Tree
p1128
(dp1129
g3
F0.013186813186813187
sg4
(itree
Tree
p1130
(dp1131
g3
F0.046357615894039736
sg4
(itree
Tree
p1132
(dp1133
g3
F0.025906735751295335
sg4
(itree
Tree
p1134
(dp1135
g21
(dp1136
g32
F1.0
ssbsg24
I00
sg25
I22
sg26
(itree
Tree
p1137
(dp1138
g3
F0.02727272727272727
sg4
(itree
Tree
p1139
(dp1140
g21
(dp1141
g23
F1.0
ssbsg24
I00
sg25
I7
sg26
(itree
Tree
p1142
(dp1143
g21
(dp1144
g23
F0.4
sg32
F0.6
ssbsbsbsg24
I00
sg25
I18
sg26
(itree
Tree
p1145
(dp1146
g3
F0.06630434782608696
sg4
(itree
Tree
p1147
(dp1148
g3
F0.07236842105263158
sg4
(itree
Tree
p1149
(dp1150
g21
(dp1151
g32
F1.0
ssbsg24
I00
sg25
I0
sg26
(itree
Tree
p1152
(dp1153
g21
(dp1154
g23
F1.0
ssbsbsg24
I00
sg25
I0
sg26
(itree
Tree
p1155
(dp1156
g3
F0.006944444444444444
sg4
(itree
Tree
p1157
(dp1158
g21
(dp1159
g32
F1.0
ssbsg24
I00
sg25
I20
sg26
(itree
Tree
p1160
(dp1161
g21
(dp1162
g23
F1.0
ssbsbsbsbsg24
I00
sg25
I15
sg26
(itree
Tree
p1163
(dp1164
g3
F0.03056768558951965
sg4
(itree
Tree
p1165
(dp1166
g21
(dp1167
g32
F1.0
ssbsg24
I00
sg25
I8
sg26
(itree
Tree
p1168
(dp1169
g3
F0.019313304721030045
sg4
(itree
Tree
p1170
(dp1171
g3
F0.3
sg4
(itree
Tree
p1172
(dp1173
g21
(dp1174
g23
F1.0
ssbsg24
I00
sg25
I31
sg26
(itree
Tree
p1175
(dp1176
g21
(dp1177
g23
F0.6666666666666666
sg32
F0.3333333333333333
ssbsbsg24
I00
sg25
I0
sg26
(itree
Tree
p1178
(dp1179
g21
(dp1180
g32
F1.0
ssbsbsbsbsg24
I00
sg25
I26
sg26
(itree
Tree
p1181
(dp1182
g3
F0.004166666666666667
sg4
(itree
Tree
p1183
(dp1184
g3
F0.021739130434782608
sg4
(itree
Tree
p1185
(dp1186
g3
F0.03677758318739054
sg4
(itree
Tree
p1187
(dp1188
g21
(dp1189
g32
F1.0
ssbsg24
I00
sg25
I20
sg26
(itree
Tree
p1190
(dp1191
g3
F0.0
sg4
(itree
Tree
p1192
(dp1193
g21
(dp1194
g23
F0.7407407407407407
sg32
F0.25925925925925924
ssbsg24
I00
sg25
I16
sg26
(itree
Tree
p1195
(dp1196
g21
(dp1197
sbsbsbsg24
I00
sg25
I7
sg26
(itree
Tree
p1198
(dp1199
g3
F0.042884990253411304
sg4
(itree
Tree
p1200
(dp1201
g21
(dp1202
g23
F1.0
ssbsg24
I00
sg25
I2
sg26
(itree
Tree
p1203
(dp1204
g21
(dp1205
g32
F1.0
ssbsbsbsg24
I00
sg25
I28
sg26
(itree
Tree
p1206
(dp1207
g3
F0.003067484662576687
sg4
(itree
Tree
p1208
(dp1209
g3
F0.06688963210702341
sg4
(itree
Tree
p1210
(dp1211
g21
(dp1212
g32
F1.0
ssbsg24
I00
sg25
I11
sg26
(itree
Tree
p1213
(dp1214
g3
F0.028089887640449437
sg4
(itree
Tree
p1215
(dp1216
g21
(dp1217
g23
F0.21428571428571427
sg32
F0.7857142857142857
ssbsg24
I00
sg25
I22
sg26
(itree
Tree
p1218
(dp1219
g21
(dp1220
g23
F0.9371165644171779
sg32
F0.06288343558282208
ssbsbsbsg24
I00
sg25
I5
sg26
(itree
Tree
p1221
(dp1222
g3
F0.042538825118163405
sg4
(itree
Tree
p1223
(dp1224
g3
F0.0436046511627907
sg4
(itree
Tree
p1225
(dp1226
g21
(dp1227
g23
F1.0
ssbsg24
I00
sg25
I19
sg26
(itree
Tree
p1228
(dp1229
g21
(dp1230
g32
F1.0
ssbsbsg24
I00
sg25
I0
sg26
(itree
Tree
p1231
(dp1232
g3
F0.07894736842105263
sg4
(itree
Tree
p1233
(dp1234
g21
(dp1235
g23
F1.0
ssbsg24
I00
sg25
I14
sg26
(itree
Tree
p1236
(dp1237
g21
(dp1238
g32
F1.0
ssbsbsbsbsbsbsbsbsg24
I00
sg25
I30
sg26
(itree
Tree
p1239
(dp1240
g3
F0.0028851702250432777
sg4
(itree
Tree
p1241
(dp1242
g3
F0.06234413965087282
sg4
(itree
Tree
p1243
(dp1244
g3
F0.09827760891590678
sg4
(itree
Tree
p1245
(dp1246
g3
F0.07026199387546785
sg4
(itree
Tree
p1247
(dp1248
g3
F0.018666666666666668
sg4
(itree
Tree
p1249
(dp1250
g3
F0.024390243902439025
sg4
(itree
Tree
p1251
(dp1252
g3
F0.21443298969072164
sg4
(itree
Tree
p1253
(dp1254
g21
(dp1255
g23
F1.0
ssbsg24
I00
sg25
I31
sg26
(itree
Tree
p1256
(dp1257
g21
(dp1258
g23
F0.14285714285714285
sg32
F0.8571428571428571
ssbsbsg24
I00
sg25
I1
sg26
(itree
Tree
p1259
(dp1260
g3
F0.05317324185248713
sg4
(itree
Tree
p1261
(dp1262
g21
(dp1263
g23
F0.9934640522875817
sg32
F0.006535947712418301
ssbsg24
I00
sg25
I0
sg26
(itree
Tree
p1264
(dp1265
g21
(dp1266
g23
F0.8823529411764706
sg32
F0.11764705882352941
ssbsbsbsg24
I00
sg25
I15
sg26
(itree
Tree
p1267
(dp1268
g3
F0.011651816312542838
sg4
(itree
Tree
p1269
(dp1270
g3
F0.2135593220338983
sg4
(itree
Tree
p1271
(dp1272
g21
(dp1273
g23
F0.5054945054945055
sg32
F0.4945054945054945
ssbsg24
I00
sg25
I31
sg26
(itree
Tree
p1274
(dp1275
g21
(dp1276
g23
F0.8198198198198198
sg32
F0.18018018018018017
ssbsbsg24
I00
sg25
I24
sg26
(itree
Tree
p1277
(dp1278
g3
F0.005970149253731343
sg4
(itree
Tree
p1279
(dp1280
g21
(dp1281
g23
F0.8829787234042553
sg32
F0.11702127659574468
ssbsg24
I00
sg25
I21
sg26
(itree
Tree
p1282
(dp1283
g21
(dp1284
g23
F1.0
ssbsbsbsbsg24
I00
sg25
I19
sg26
(itree
Tree
p1285
(dp1286
g3
F0.021853146853146852
sg4
(itree
Tree
p1287
(dp1288
g3
F0.011194029850746268
sg4
(itree
Tree
p1289
(dp1290
g3
F0.04627249357326478
sg4
(itree
Tree
p1291
(dp1292
g21
(dp1293
g23
F1.0
ssbsg24
I00
sg25
I11
sg26
(itree
Tree
p1294
(dp1295
g21
(dp1296
g23
F0.20588235294117646
sg32
F0.7941176470588235
ssbsbsg24
I00
sg25
I26
sg26
(itree
Tree
p1297
(dp1298
g3
F0.16984258492129245
sg4
(itree
Tree
p1299
(dp1300
g21
(dp1301
g23
F0.6403508771929824
sg32
F0.35964912280701755
ssbsg24
I00
sg25
I31
sg26
(itree
Tree
p1302
(dp1303
g21
(dp1304
g32
F1.0
ssbsbsbsg24
I00
sg25
I20
sg26
(itree
Tree
p1305
(dp1306
g3
F0.0111731843575419
sg4
(itree
Tree
p1307
(dp1308
g3
F0.022727272727272728
sg4
(itree
Tree
p1309
(dp1310
g21
(dp1311
g23
F0.5121951219512195
sg32
F0.4878048780487805
ssbsg24
I00
sg25
I7
sg26
(itree
Tree
p1312
(dp1313
g21
(dp1314
g23
F0.9629629629629629
sg32
F0.037037037037037035
ssbsbsg24
I00
sg25
I26
sg26
(itree
Tree
p1315
(dp1316
g3
F0.04285714285714286
sg4
(itree
Tree
p1317
(dp1318
g21
(dp1319
g23
F0.6
sg32
F0.4
ssbsg24
I00
sg25
I11
sg26
(itree
Tree
p1320
(dp1321
g21
(dp1322
g23
F1.0
ssbsbsbsbsbsg24
I00
sg25
I4
sg26
(itree
Tree
p1323
(dp1324
g3
F0.01507537688442211
sg4
(itree
Tree
p1325
(dp1326
g3
F0.02292768959435626
sg4
(itree
Tree
p1327
(dp1328
g3
F0.0032025620496397116
sg4
(itree
Tree
p1329
(dp1330
g3
F0.008849557522123894
sg4
(itree
Tree
p1331
(dp1332
g21
(dp1333
g32
F1.0
ssbsg24
I00
sg25
I28
sg26
(itree
Tree
p1334
(dp1335
g21
(dp1336
g23
F0.4842105263157895
sg32
F0.5157894736842106
ssbsbsg24
I00
sg25
I9
sg26
(itree
Tree
p1337
(dp1338
g3
F0.03879530372639101
sg4
(itree
Tree
p1339
(dp1340
g21
(dp1341
g23
F0.13953488372093023
sg32
F0.8604651162790697
ssbsg24
I00
sg25
I17
sg26
(itree
Tree
p1342
(dp1343
g21
(dp1344
g23
F0.5121951219512195
sg32
F0.4878048780487805
ssbsbsbsg24
I00
sg25
I20
sg26
(itree
Tree
p1345
(dp1346
g3
F0.014499532273152479
sg4
(itree
Tree
p1347
(dp1348
g3
F0.014634146341463415
sg4
(itree
Tree
p1349
(dp1350
g21
(dp1351
g23
F0.640625
sg32
F0.359375
ssbsg24
I00
sg25
I15
sg26
(itree
Tree
p1352
(dp1353
g21
(dp1354
g23
F0.35294117647058826
sg32
F0.6470588235294118
ssbsbsg24
I00
sg25
I20
sg26
(itree
Tree
p1355
(dp1356
g21
(dp1357
g23
F1.0
ssbsbsbsg24
I00
sg25
I24
sg26
(itree
Tree
p1358
(dp1359
g3
F0.018867924528301886
sg4
(itree
Tree
p1360
(dp1361
g3
F0.021505376344086023
sg4
(itree
Tree
p1362
(dp1363
g3
F0.012552301255230125
sg4
(itree
Tree
p1364
(dp1365
g21
(dp1366
g32
F1.0
ssbsg24
I00
sg25
I27
sg26
(itree
Tree
p1367
(dp1368
g21
(dp1369
g23
F0.3181818181818182
sg32
F0.6818181818181818
ssbsbsg24
I00
sg25
I26
sg26
(itree
Tree
p1370
(dp1371
g3
F0.0019083969465648854
sg4
(itree
Tree
p1372
(dp1373
g21
(dp1374
g23
F0.577922077922078
sg32
F0.42207792207792205
ssbsg24
I00
sg25
I23
sg26
(itree
Tree
p1375
(dp1376
g21
(dp1377
g23
F0.8415637860082305
sg32
F0.15843621399176955
ssbsbsbsg24
I00
sg25
I11
sg26
(itree
Tree
p1378
(dp1379
g3
F0.0001337971635001338
sg4
(itree
Tree
p1380
(dp1381
g3
F0.007614213197969543
sg4
(itree
Tree
p1382
(dp1383
g21
(dp1384
g23
F0.6666666666666666
sg32
F0.3333333333333333
ssbsg24
I00
sg25
I10
sg26
(itree
Tree
p1385
(dp1386
g21
(dp1387
g32
F1.0
ssbsbsg24
I00
sg25
I16
sg26
(itree
Tree
p1388
(dp1389
g3
F0.005194805194805195
sg4
(itree
Tree
p1390
(dp1391
g21
(dp1392
g32
F1.0
ssbsg24
I00
sg25
I28
sg26
(itree
Tree
p1393
(dp1394
g21
(dp1395
g23
F0.72
sg32
F0.28
ssbsbsbsbsbsbsg24
I00
sg25
I19
sg26
(itree
Tree
p1396
(dp1397
g3
F0.001682085786375105
sg4
(itree
Tree
p1398
(dp1399
g3
F0.06510416666666667
sg4
(itree
Tree
p1400
(dp1401
g3
F0.029953917050691243
sg4
(itree
Tree
p1402
(dp1403
g3
F0.042134831460674156
sg4
(itree
Tree
p1404
(dp1405
g21
(dp1406
g32
F1.0
ssbsg24
I00
sg25
I0
sg26
(itree
Tree
p1407
(dp1408
g21
(dp1409
g23
F1.0
ssbsbsg24
I00
sg25
I20
sg26
(itree
Tree
p1410
(dp1411
g3
F0.0007561436672967864
sg4
(itree
Tree
p1412
(dp1413
g3
F0.02194656488549618
sg4
(itree
Tree
p1414
(dp1415
g21
(dp1416
g23
F0.8983050847457628
sg32
F0.1016949152542373
ssbsg24
I00
sg25
I11
sg26
(itree
Tree
p1417
(dp1418
g21
(dp1419
g23
F0.25
sg32
F0.75
ssbsbsg24
I00
sg25
I10
sg26
(itree
Tree
p1420
(dp1421
g21
(dp1422
g32
F1.0
ssbsbsbsg24
I00
sg25
I13
sg26
(itree
Tree
p1423
(dp1424
g3
F0.002028397565922921
sg4
(itree
Tree
p1425
(dp1426
g3
F0.004846526655896607
sg4
(itree
Tree
p1427
(dp1428
g21
(dp1429
g32
F1.0
ssbsg24
I00
sg25
I23
sg26
(itree
Tree
p1430
(dp1431
g3
F0.003443526170798898
sg4
(itree
Tree
p1432
(dp1433
g21
(dp1434
g23
F0.11594202898550725
sg32
F0.8840579710144928
ssbsg24
I00
sg25
I27
sg26
(itree
Tree
p1435
(dp1436
g21
(dp1437
g32
F1.0
ssbsbsbsg24
I00
sg25
I25
sg26
(itree
Tree
p1438
(dp1439
g3
F0.01645123384253819
sg4
(itree
Tree
p1440
(dp1441
g3
F0.04666666666666667
sg4
(itree
Tree
p1442
(dp1443
g21
(dp1444
g23
F0.5
sg32
F0.5
ssbsg24
I00
sg25
I20
sg26
(itree
Tree
p1445
(dp1446
g21
(dp1447
g23
F0.05027932960893855
sg32
F0.9497206703910615
ssbsbsg24
I00
sg25
I26
sg26
(itree
Tree
p1448
(dp1449
g3
F0.02710413694721826
sg4
(itree
Tree
p1450
(dp1451
g21
(dp1452
g23
F0.12
sg32
F0.88
ssbsg24
I00
sg25
I20
sg26
(itree
Tree
p1453
(dp1454
g21
(dp1455
g23
F0.3192982456140351
sg32
F0.6807017543859649
ssbsbsbsbsbsg24
I00
sg25
I23
sg26
(itree
Tree
p1456
(dp1457
g3
F0.00042283298097251583
sg4
(itree
Tree
p1458
(dp1459
g3
F0.030261348005502064
sg4
(itree
Tree
p1460
(dp1461
g3
F0.057971014492753624
sg4
(itree
Tree
p1462
(dp1463
g3
F0.016142050040355124
sg4
(itree
Tree
p1464
(dp1465
g21
(dp1466
g32
F1.0
ssbsg24
I00
sg25
I24
sg26
(itree
Tree
p1467
(dp1468
g21
(dp1469
g23
F0.8333333333333334
sg32
F0.16666666666666666
ssbsbsg24
I00
sg25
I19
sg26
(itree
Tree
p1470
(dp1471
g3
F0.09174311926605505
sg4
(itree
Tree
p1472
(dp1473
g21
(dp1474
g23
F0.5
sg32
F0.5
ssbsg24
I00
sg25
I0
sg26
(itree
Tree
p1475
(dp1476
g21
(dp1477
g32
F1.0
ssbsbsbsg24
I00
sg25
I2
sg26
(itree
Tree
p1478
(dp1479
g3
F0.002304147465437788
sg4
(itree
Tree
p1480
(dp1481
g3
F0.009302325581395349
sg4
(itree
Tree
p1482
(dp1483
g21
(dp1484
g23
F0.3469387755102041
sg32
F0.6530612244897959
ssbsg24
I00
sg25
I26
sg26
(itree
Tree
p1485
(dp1486
g21
(dp1487
g23
F0.71875
sg32
F0.28125
ssbsbsg24
I00
sg25
I9
sg26
(itree
Tree
p1488
(dp1489
g3
F0.001564945226917058
sg4
(itree
Tree
p1490
(dp1491
g21
(dp1492
g23
F1.0
ssbsg24
I00
sg25
I23
sg26
(itree
Tree
p1493
(dp1494
g21
(dp1495
g23
F0.09333333333333334
sg32
F0.9066666666666666
ssbsbsbsbsg24
I00
sg25
I28
sg26
(itree
Tree
p1496
(dp1497
g3
F0.0011376564277588168
sg4
(itree
Tree
p1498
(dp1499
g3
F0.04990729295426453
sg4
(itree
Tree
p1500
(dp1501
g3
F0.17416378316032297
sg4
(itree
Tree
p1502
(dp1503
g21
(dp1504
g23
F0.6928104575163399
sg32
F0.30718954248366015
ssbsg24
I00
sg25
I31
sg26
(itree
Tree
p1505
(dp1506
g21
(dp1507
g32
F1.0
ssbsbsg24
I00
sg25
I13
sg26
(itree
Tree
p1508
(dp1509
g3
F0.11254019292604502
sg4
(itree
Tree
p1510
(dp1511
g21
(dp1512
g23
F0.7551020408163265
sg32
F0.24489795918367346
ssbsg24
I00
sg25
I4
sg26
(itree
Tree
p1513
(dp1514
g21
(dp1515
g23
F0.3709090909090909
sg32
F0.6290909090909091
ssbsbsbsg24
I00
sg25
I9
sg26
(itree
Tree
p1516
(dp1517
g3
F0.007423445716053201
sg4
(itree
Tree
p1518
(dp1519
g3
F0.020723785957315187
sg4
(itree
Tree
p1520
(dp1521
g21
(dp1522
g23
F1.0
ssbsg24
I00
sg25
I6
sg26
(itree
Tree
p1523
(dp1524
g21
(dp1525
g23
F0.08333333333333333
sg32
F0.9166666666666666
ssbsbsg24
I00
sg25
I30
sg26
(itree
Tree
p1526
(dp1527
g21
(dp1528
g32
F1.0
ssbsbsbsbsbsbsg24
I00
sg25
I26
sg26
(itree
Tree
p1529
(dp1530
g3
F0.01728395061728395
sg4
(itree
Tree
p1531
(dp1532
g3
F0.007042253521126761
sg4
(itree
Tree
p1533
(dp1534
g3
F0.09154929577464789
sg4
(itree
Tree
p1535
(dp1536
g3
F0.023809523809523808
sg4
(itree
Tree
p1537
(dp1538
g3
F0.021052631578947368
sg4
(itree
Tree
p1539
(dp1540
g21
(dp1541
g23
F1.0
ssbsg24
I00
sg25
I10
sg26
(itree
Tree
p1542
(dp1543
g3
F0.04929577464788732
sg4
(itree
Tree
p1544
(dp1545
g21
(dp1546
g23
F0.2727272727272727
sg32
F0.7272727272727273
ssbsg24
I00
sg25
I17
sg26
(itree
Tree
p1547
(dp1548
g21
(dp1549
g32
F1.0
ssbsbsbsg24
I00
sg25
I14
sg26
(itree
Tree
p1550
(dp1551
g21
(dp1552
g23
F1.0
ssbsbsg24
I00
sg25
I19
sg26
(itree
Tree
p1553
(dp1554
g3
F0.03858520900321544
sg4
(itree
Tree
p1555
(dp1556
g3
F0.03225806451612903
sg4
(itree
Tree
p1557
(dp1558
g3
F0.0425531914893617
sg4
(itree
Tree
p1559
(dp1560
g21
(dp1561
g32
F1.0
ssbsg24
I00
sg25
I5
sg26
(itree
Tree
p1562
(dp1563
g21
(dp1564
g23
F0.5714285714285714
sg32
F0.42857142857142855
ssbsbsg24
I00
sg25
I5
sg26
(itree
Tree
p1565
(dp1566
g3
F0.1111111111111111
sg4
(itree
Tree
p1567
(dp1568
g21
(dp1569
g23
F0.42857142857142855
sg32
F0.5714285714285714
ssbsg24
I00
sg25
I18
sg26
(itree
Tree
p1570
(dp1571
g21
(dp1572
g23
F0.014423076923076924
sg32
F0.9855769230769231
ssbsbsbsg24
I00
sg25
I2
sg26
(itree
Tree
p1573
(dp1574
g3
F0.16455696202531644
sg4
(itree
Tree
p1575
(dp1576
g3
F0.057692307692307696
sg4
(itree
Tree
p1577
(dp1578
g21
(dp1579
g32
F1.0
ssbsg24
I00
sg25
I0
sg26
(itree
Tree
p1580
(dp1581
g21
(dp1582
g23
F1.0
ssbsbsg24
I00
sg25
I4
sg26
(itree
Tree
p1583
(dp1584
g3
F0.007104795737122558
sg4
(itree
Tree
p1585
(dp1586
g21
(dp1587
g32
F1.0
ssbsg24
I00
sg25
I25
sg26
(itree
Tree
p1588
(dp1589
g21
(dp1590
g23
F0.16964285714285715
sg32
F0.8303571428571429
ssbsbsbsbsbsg24
I00
sg25
I9
sg26
(itree
Tree
p1591
(dp1592
g3
F0.04032258064516129
sg4
(itree
Tree
p1593
(dp1594
g21
(dp1595
g32
F1.0
ssbsg24
I00
sg25
I17
sg26
(itree
Tree
p1596
(dp1597
g3
F0.061611374407582936
sg4
(itree
Tree
p1598
(dp1599
g21
(dp1600
g32
F1.0
ssbsg24
I00
sg25
I0
sg26
(itree
Tree
p1601
(dp1602
g21
(dp1603
g23
F1.0
ssbsbsbsbsg24
I00
sg25
I1
sg26
(itree
Tree
p1604
(dp1605
g3
F0.007110536522301228
sg4
(itree
Tree
p1606
(dp1607
g3
F0.018691588785046728
sg4
(itree
Tree
p1608
(dp1609
g3
F0.0
sg4
(itree
Tree
p1610
(dp1611
g3
F0.0
sg4
(itree
Tree
p1612
(dp1613
g3
F0.0
sg4
(itree
Tree
p1614
(dp1615
g21
(dp1616
g23
F0.18518518518518517
sg32
F0.8148148148148148
ssbsg24
I00
sg25
I21
sg26
(itree
Tree
p1617
(dp1618
g21
(dp1619
sbsbsg24
I00
sg25
I21
sg26
(itree
Tree
p1620
(dp1621
g21
(dp1622
sbsbsg24
I00
sg25
I21
sg26
(itree
Tree
p1623
(dp1624
g21
(dp1625
sbsbsg24
I00
sg25
I24
sg26
(itree
Tree
p1626
(dp1627
g3
F0.0
sg4
(itree
Tree
p1628
(dp1629
g3
F0.0
sg4
(itree
Tree
p1630
(dp1631
g3
F0.0
sg4
(itree
Tree
p1632
(dp1633
g21
(dp1634
g23
F0.6417910447761194
sg32
F0.3582089552238806
ssbsg24
I00
sg25
I27
sg26
(itree
Tree
p1635
(dp1636
g21
(dp1637
sbsbsg24
I00
sg25
I27
sg26
(itree
Tree
p1638
(dp1639
g21
(dp1640
sbsbsg24
I00
sg25
I27
sg26
(itree
Tree
p1641
(dp1642
g21
(dp1643
sbsbsbsg24
I00
sg25
I9
sg26
(itree
Tree
p1644
(dp1645
g3
F0.013048635824436536
sg4
(itree
Tree
p1646
(dp1647
g21
(dp1648
g32
F1.0
ssbsg24
I00
sg25
I1
sg26
(itree
Tree
p1649
(dp1650
g3
F0.0077279752704791345
sg4
(itree
Tree
p1651
(dp1652
g3
F0.06538139145012574
sg4
(itree
Tree
p1653
(dp1654
g3
F0.04945904173106646
sg4
(itree
Tree
p1655
(dp1656
g21
(dp1657
g32
F1.0
ssbsg24
I00
sg25
I17
sg26
(itree
Tree
p1658
(dp1659
g21
(dp1660
g23
F1.0
ssbsbsg24
I00
sg25
I19
sg26
(itree
Tree
p1661
(dp1662
g21
(dp1663
g32
F1.0
ssbsbsg24
I00
sg25
I21
sg26
(itree
Tree
p1664
(dp1665
g3
F0.0
sg4
(itree
Tree
p1666
(dp1667
g3
F0.0
sg4
(itree
Tree
p1668
(dp1669
g21
(dp1670
g23
F0.4444444444444444
sg32
F0.5555555555555556
ssbsg24
I00
sg25
I27
sg26
(itree
Tree
p1671
(dp1672
g21
(dp1673
sbsbsg24
I00
sg25
I27
sg26
(itree
Tree
p1674
(dp1675
g21
(dp1676
sbsbsbsbsbsbsbsbsba.